; Function Attrs: mustprogress uwtable
define void @_ZNK18OpenImageIO_v2_6_010ParamValue19get_ustring_indexedEi(ptr noalias nocapture writeonly sret(%"class.OpenImageIO_v2_6_0::ustring") align 8 %agg.result, ptr noundef nonnull align 8 dereferenceable(39) %this, i32 noundef %index) local_unnamed_addr #10 align 2 personality ptr @__gxx_personality_v0 {
entry:
  %agg.tmp.i = alloca %"class.OpenImageIO_v2_6_0::basic_string_view", align 8
  %ref.tmp.i = alloca %"class.OpenImageIO_v2_6_0::ustring", align 8
  %ref.tmp9 = alloca %"class.std::__cxx11::basic_string", align 8
  %m_type.i = getelementptr inbounds i8, ptr %this, i64 8
  %0 = load i8, ptr %m_type.i, align 8, !noalias !71
  %aggregate3.i.i = getelementptr inbounds i8, ptr %this, i64 9
  %1 = load i8, ptr %aggregate3.i.i, align 1, !noalias !71
  %arraylen5.i.i = getelementptr inbounds i8, ptr %this, i64 12
  %2 = load i32, ptr %arraylen5.i.i, align 4, !noalias !71
  %cmp.i = icmp eq i8 %0, 13
  %cmp2.i = icmp eq i8 %1, 1
  %or.cond.i = select i1 %cmp.i, i1 %cmp2.i, i1 false
  %cmp.i.not.i = icmp eq i32 %2, 0
  %3 = select i1 %or.cond.i, i1 %cmp.i.not.i, i1 false
  br i1 %3, label %if.then, label %if.end

if.then:                                          ; preds = %entry
  %m_nonlocal.i.i = getelementptr inbounds i8, ptr %this, i64 38
  %4 = load i8, ptr %m_nonlocal.i.i, align 2
  %5 = and i8 %4, 1
  %tobool.not.i.i = icmp eq i8 %5, 0
  %m_data.i.i = getelementptr inbounds i8, ptr %this, i64 16
  %6 = load ptr, ptr %m_data.i.i, align 8
  %cond.i.i = select i1 %tobool.not.i.i, ptr %m_data.i.i, ptr %6
  %idxprom.i = sext i32 %index to i64
  %arrayidx.i = getelementptr inbounds %"class.OpenImageIO_v2_6_0::ustring", ptr %cond.i.i, i64 %idxprom.i
  %7 = load ptr, ptr %arrayidx.i, align 8
  store ptr %7, ptr %agg.result, align 8
  br label %return

if.end:                                           ; preds = %entry
  %cmp.i12 = icmp eq i8 %0, 15
  %or.cond.i15 = select i1 %cmp.i12, i1 %cmp2.i, i1 false
  %8 = select i1 %or.cond.i15, i1 %cmp.i.not.i, i1 false
  br i1 %8, label %if.then5, label %if.end7

if.then5:                                         ; preds = %if.end
  %m_nonlocal.i.i18 = getelementptr inbounds i8, ptr %this, i64 38
  %9 = load i8, ptr %m_nonlocal.i.i18, align 2
  %10 = and i8 %9, 1
  %tobool.not.i.i19 = icmp eq i8 %10, 0
  %m_data.i.i20 = getelementptr inbounds i8, ptr %this, i64 16
  %11 = load ptr, ptr %m_data.i.i20, align 8
  %cond.i.i21 = select i1 %tobool.not.i.i19, ptr %m_data.i.i20, ptr %11
  %12 = load i64, ptr %cond.i.i21, align 8
  call void @llvm.lifetime.start.p0(i64 8, ptr nonnull %ref.tmp.i)
  call void @_ZN18OpenImageIO_v2_6_07ustring9from_hashEm(ptr nonnull sret(%"class.OpenImageIO_v2_6_0::ustring") align 8 %ref.tmp.i, i64 noundef %12)
  %13 = load ptr, ptr %ref.tmp.i, align 8
  store ptr %13, ptr %agg.result, align 8
  call void @llvm.lifetime.end.p0(i64 8, ptr nonnull %ref.tmp.i)
  br label %return

if.end7:                                          ; preds = %if.end
  call void @_ZNK18OpenImageIO_v2_6_010ParamValue18get_string_indexedB5cxx11Ei(ptr nonnull sret(%"class.std::__cxx11::basic_string") align 8 %ref.tmp9, ptr noundef nonnull align 8 dereferenceable(39) %this, i32 noundef %index)
  %call.i = call noundef ptr @_ZNKSt7__cxx1112basic_stringIcSt11char_traitsIcESaIcEE4dataEv(ptr noundef nonnull align 8 dereferenceable(32) %ref.tmp9) #24
  %call2.i = call noundef i64 @_ZNKSt7__cxx1112basic_stringIcSt11char_traitsIcESaIcEE4sizeEv(ptr noundef nonnull align 8 dereferenceable(32) %ref.tmp9) #24
  call void @llvm.lifetime.start.p0(i64 16, ptr nonnull %agg.tmp.i)
  %tobool.not.i = icmp eq ptr %call.i, null
  br i1 %tobool.not.i, label %invoke.cont, label %cond.true.i

cond.true.i:                                      ; preds = %if.end7
  store ptr %call.i, ptr %agg.tmp.i, align 8
  %m_len.i.i = getelementptr inbounds i8, ptr %agg.tmp.i, i64 8
  store i64 %call2.i, ptr %m_len.i.i, align 8
  %call2.i2223 = invoke noundef ptr @_ZN18OpenImageIO_v2_6_07ustring11make_uniqueENS_17basic_string_viewIcSt11char_traitsIcEEE(ptr noundef nonnull %agg.tmp.i)
          to label %invoke.cont unwind label %lpad

invoke.cont:                                      ; preds = %if.end7, %cond.true.i
  %cond.i = phi ptr [ null, %if.end7 ], [ %call2.i2223, %cond.true.i ]
  store ptr %cond.i, ptr %agg.result, align 8
  call void @llvm.lifetime.end.p0(i64 16, ptr nonnull %agg.tmp.i)
  call void @_ZNSt7__cxx1112basic_stringIcSt11char_traitsIcESaIcEED1Ev(ptr noundef nonnull align 8 dereferenceable(32) %ref.tmp9) #24
  br label %return

lpad:                                             ; preds = %cond.true.i
  %14 = landingpad { ptr, i32 }
          cleanup
  call void @_ZNSt7__cxx1112basic_stringIcSt11char_traitsIcESaIcEED1Ev(ptr noundef nonnull align 8 dereferenceable(32) %ref.tmp9) #24
  resume { ptr, i32 } %14

return:                                           ; preds = %invoke.cont, %if.then5, %if.then
  ret void
}